target datalayout = "e-m:e-p270:32:32-p271:32:32-p272:64:64-i64:64-i128:128-f80:128-n8:16:32:64-S128"
target triple = "x86_64-pc-linux-gnu"

%struct.DWTContext = type { ptr, ptr, i32, i32, i32, i32, i32, ptr, %union.anon, %union.anon, ptr, ptr, ptr, ptr, [8 x %struct.DWTCompose] }
%union.anon = type { ptr }
%struct.DWTCompose = type { [8 x ptr], i32 }

; Function Attrs: alwaysinline nounwind willreturn memory(none) uwtable
define internal i32 @avpriv_mirror(i32 noundef %0, i32 noundef %1) #3 {
  %3 = alloca i32, align 4
  %4 = alloca i32, align 4
  %5 = alloca i32, align 4
  store i32 %0, ptr %4, align 4, !tbaa !11
  store i32 %1, ptr %5, align 4, !tbaa !11
  %6 = load i32, ptr %5, align 4, !tbaa !11
  %7 = icmp ne i32 %6, 0
  br i1 %7, label %9, label %8

8:                                                ; preds = %2
  store i32 0, ptr %3, align 4
  br label %27

9:                                                ; preds = %2
  br label %10

10:                                               ; preds = %24, %9
  %11 = load i32, ptr %4, align 4, !tbaa !11
  %12 = load i32, ptr %5, align 4, !tbaa !11
  %13 = icmp ugt i32 %11, %12
  br i1 %13, label %14, label %25

14:                                               ; preds = %10
  %15 = load i32, ptr %4, align 4, !tbaa !11
  %16 = sub nsw i32 0, %15
  store i32 %16, ptr %4, align 4, !tbaa !11
  %17 = load i32, ptr %4, align 4, !tbaa !11
  %18 = icmp slt i32 %17, 0
  br i1 %18, label %19, label %24

19:                                               ; preds = %14
  %20 = load i32, ptr %5, align 4, !tbaa !11
  %21 = mul nsw i32 2, %20
  %22 = load i32, ptr %4, align 4, !tbaa !11
  %23 = add nsw i32 %22, %21
  store i32 %23, ptr %4, align 4, !tbaa !11
  br label %24

24:                                               ; preds = %19, %14
  br label %10, !llvm.loop !86

25:                                               ; preds = %10
  %26 = load i32, ptr %4, align 4, !tbaa !11
  store i32 %26, ptr %3, align 4
  br label %27

27:                                               ; preds = %25, %8
  %28 = load i32, ptr %3, align 4
  ret i32 %28
}

; Function Attrs: nounwind uwtable
define internal void @spatial_compose_daub97i_dy_10bit(ptr noundef %0, i32 noundef %1, i32 noundef %2, i32 noundef %3, i32 noundef %4) #0 {
  %6 = alloca ptr, align 8
  %7 = alloca i32, align 4
  %8 = alloca i32, align 4
  %9 = alloca i32, align 4
  %10 = alloca i32, align 4
  %11 = alloca ptr, align 8
  %12 = alloca ptr, align 8
  %13 = alloca ptr, align 8
  %14 = alloca ptr, align 8
  %15 = alloca ptr, align 8
  %16 = alloca i32, align 4
  %17 = alloca i32, align 4
  %18 = alloca [6 x ptr], align 16
  store ptr %0, ptr %6, align 8, !tbaa !4
  store i32 %1, ptr %7, align 4, !tbaa !11
  store i32 %2, ptr %8, align 4, !tbaa !11
  store i32 %3, ptr %9, align 4, !tbaa !11
  store i32 %4, ptr %10, align 4, !tbaa !11
  call void @llvm.lifetime.start.p0(i64 8, ptr %11) #5
  %19 = load ptr, ptr %6, align 8, !tbaa !4
  %20 = getelementptr inbounds nuw %struct.DWTContext, ptr %19, i32 0, i32 8
  %21 = load ptr, ptr %20, align 8, !tbaa !32
  store ptr %21, ptr %11, align 8, !tbaa !45
  call void @llvm.lifetime.start.p0(i64 8, ptr %12) #5
  %22 = load ptr, ptr %6, align 8, !tbaa !4
  %23 = getelementptr inbounds nuw %struct.DWTContext, ptr %22, i32 0, i32 9
  %24 = load ptr, ptr %23, align 8, !tbaa !32
  store ptr %24, ptr %12, align 8, !tbaa !45
  call void @llvm.lifetime.start.p0(i64 8, ptr %13) #5
  %25 = load ptr, ptr %6, align 8, !tbaa !4
  %26 = getelementptr inbounds nuw %struct.DWTContext, ptr %25, i32 0, i32 10
  %27 = load ptr, ptr %26, align 8, !tbaa !36
  store ptr %27, ptr %13, align 8, !tbaa !45
  call void @llvm.lifetime.start.p0(i64 8, ptr %14) #5
  %28 = load ptr, ptr %6, align 8, !tbaa !4
  %29 = getelementptr inbounds nuw %struct.DWTContext, ptr %28, i32 0, i32 11
  %30 = load ptr, ptr %29, align 8, !tbaa !37
  store ptr %30, ptr %14, align 8, !tbaa !45
  call void @llvm.lifetime.start.p0(i64 8, ptr %15) #5
  %31 = load ptr, ptr %6, align 8, !tbaa !4
  %32 = getelementptr inbounds nuw %struct.DWTContext, ptr %31, i32 0, i32 14
  %33 = getelementptr inbounds [8 x %struct.DWTCompose], ptr %32, i64 0, i64 0
  %34 = load i32, ptr %7, align 4, !tbaa !11
  %35 = sext i32 %34 to i64
  %36 = getelementptr inbounds %struct.DWTCompose, ptr %33, i64 %35
  store ptr %36, ptr %15, align 8, !tbaa !42
  call void @llvm.lifetime.start.p0(i64 4, ptr %16) #5
  call void @llvm.lifetime.start.p0(i64 4, ptr %17) #5
  %37 = load ptr, ptr %15, align 8, !tbaa !42
  %38 = getelementptr inbounds nuw %struct.DWTCompose, ptr %37, i32 0, i32 1
  %39 = load i32, ptr %38, align 8, !tbaa !27
  store i32 %39, ptr %17, align 4, !tbaa !11
  call void @llvm.lifetime.start.p0(i64 48, ptr %18) #5
  store i32 0, ptr %16, align 4, !tbaa !11
  br label %40

40:                                               ; preds = %53, %5
  %41 = load i32, ptr %16, align 4, !tbaa !11
  %42 = icmp slt i32 %41, 4
  br i1 %42, label %43, label %56

43:                                               ; preds = %40
  %44 = load ptr, ptr %15, align 8, !tbaa !42
  %45 = getelementptr inbounds nuw %struct.DWTCompose, ptr %44, i32 0, i32 0
  %46 = load i32, ptr %16, align 4, !tbaa !11
  %47 = sext i32 %46 to i64
  %48 = getelementptr inbounds [8 x ptr], ptr %45, i64 0, i64 %47
  %49 = load ptr, ptr %48, align 8, !tbaa !44
  %50 = load i32, ptr %16, align 4, !tbaa !11
  %51 = sext i32 %50 to i64
  %52 = getelementptr inbounds [6 x ptr], ptr %18, i64 0, i64 %51
  store ptr %49, ptr %52, align 8, !tbaa !44
  br label %53

53:                                               ; preds = %43
  %54 = load i32, ptr %16, align 4, !tbaa !11
  %55 = add nsw i32 %54, 1
  store i32 %55, ptr %16, align 4, !tbaa !11
  br label %40, !llvm.loop !116

56:                                               ; preds = %40
  %57 = load ptr, ptr %6, align 8, !tbaa !4
  %58 = getelementptr inbounds nuw %struct.DWTContext, ptr %57, i32 0, i32 0
  %59 = load ptr, ptr %58, align 8, !tbaa !16
  %60 = load i32, ptr %17, align 4, !tbaa !11
  %61 = add nsw i32 %60, 3
  %62 = load i32, ptr %9, align 4, !tbaa !11
  %63 = sub nsw i32 %62, 1
  %64 = call i32 @avpriv_mirror(i32 noundef %61, i32 noundef %63) #6
  %65 = load i32, ptr %10, align 4, !tbaa !11
  %66 = mul nsw i32 %64, %65
  %67 = sext i32 %66 to i64
  %68 = getelementptr inbounds i8, ptr %59, i64 %67
  %69 = getelementptr inbounds [6 x ptr], ptr %18, i64 0, i64 4
  store ptr %68, ptr %69, align 16, !tbaa !44
  %70 = load ptr, ptr %6, align 8, !tbaa !4
  %71 = getelementptr inbounds nuw %struct.DWTContext, ptr %70, i32 0, i32 0
  %72 = load ptr, ptr %71, align 8, !tbaa !16
  %73 = load i32, ptr %17, align 4, !tbaa !11
  %74 = add nsw i32 %73, 4
  %75 = load i32, ptr %9, align 4, !tbaa !11
  %76 = sub nsw i32 %75, 1
  %77 = call i32 @avpriv_mirror(i32 noundef %74, i32 noundef %76) #6
  %78 = load i32, ptr %10, align 4, !tbaa !11
  %79 = mul nsw i32 %77, %78
  %80 = sext i32 %79 to i64
  %81 = getelementptr inbounds i8, ptr %72, i64 %80
  %82 = getelementptr inbounds [6 x ptr], ptr %18, i64 0, i64 5
  store ptr %81, ptr %82, align 8, !tbaa !44
  %83 = load i32, ptr %17, align 4, !tbaa !11
  %84 = add nsw i32 %83, 3
  %85 = load i32, ptr %9, align 4, !tbaa !11
  %86 = icmp ult i32 %84, %85
  br i1 %86, label %87, label %96

87:                                               ; preds = %56
  %88 = load ptr, ptr %13, align 8, !tbaa !45
  %89 = getelementptr inbounds [6 x ptr], ptr %18, i64 0, i64 3
  %90 = load ptr, ptr %89, align 8, !tbaa !44
  %91 = getelementptr inbounds [6 x ptr], ptr %18, i64 0, i64 4
  %92 = load ptr, ptr %91, align 16, !tbaa !44
  %93 = getelementptr inbounds [6 x ptr], ptr %18, i64 0, i64 5
  %94 = load ptr, ptr %93, align 8, !tbaa !44
  %95 = load i32, ptr %8, align 4, !tbaa !11
  call void %88(ptr noundef %90, ptr noundef %92, ptr noundef %94, i32 noundef %95)
  br label %96

96:                                               ; preds = %87, %56
  %97 = load i32, ptr %17, align 4, !tbaa !11
  %98 = add nsw i32 %97, 2
  %99 = load i32, ptr %9, align 4, !tbaa !11
  %100 = icmp ult i32 %98, %99
  br i1 %100, label %101, label %110

101:                                              ; preds = %96
  %102 = load ptr, ptr %14, align 8, !tbaa !45
  %103 = getelementptr inbounds [6 x ptr], ptr %18, i64 0, i64 2
  %104 = load ptr, ptr %103, align 16, !tbaa !44
  %105 = getelementptr inbounds [6 x ptr], ptr %18, i64 0, i64 3
  %106 = load ptr, ptr %105, align 8, !tbaa !44
  %107 = getelementptr inbounds [6 x ptr], ptr %18, i64 0, i64 4
  %108 = load ptr, ptr %107, align 16, !tbaa !44
  %109 = load i32, ptr %8, align 4, !tbaa !11
  call void %102(ptr noundef %104, ptr noundef %106, ptr noundef %108, i32 noundef %109)
  br label %110

110:                                              ; preds = %101, %96
  %111 = load i32, ptr %17, align 4, !tbaa !11
  %112 = add nsw i32 %111, 1
  %113 = load i32, ptr %9, align 4, !tbaa !11
  %114 = icmp ult i32 %112, %113
  br i1 %114, label %115, label %124

115:                                              ; preds = %110
  %116 = load ptr, ptr %11, align 8, !tbaa !45
  %117 = getelementptr inbounds [6 x ptr], ptr %18, i64 0, i64 1
  %118 = load ptr, ptr %117, align 8, !tbaa !44
  %119 = getelementptr inbounds [6 x ptr], ptr %18, i64 0, i64 2
  %120 = load ptr, ptr %119, align 16, !tbaa !44
  %121 = getelementptr inbounds [6 x ptr], ptr %18, i64 0, i64 3
  %122 = load ptr, ptr %121, align 8, !tbaa !44
  %123 = load i32, ptr %8, align 4, !tbaa !11
  call void %116(ptr noundef %118, ptr noundef %120, ptr noundef %122, i32 noundef %123)
  br label %124

124:                                              ; preds = %115, %110
  %125 = load i32, ptr %17, align 4, !tbaa !11
  %126 = add nsw i32 %125, 0
  %127 = load i32, ptr %9, align 4, !tbaa !11
  %128 = icmp ult i32 %126, %127
  br i1 %128, label %129, label %138

129:                                              ; preds = %124
  %130 = load ptr, ptr %12, align 8, !tbaa !45
  %131 = getelementptr inbounds [6 x ptr], ptr %18, i64 0, i64 0
  %132 = load ptr, ptr %131, align 16, !tbaa !44
  %133 = getelementptr inbounds [6 x ptr], ptr %18, i64 0, i64 1
  %134 = load ptr, ptr %133, align 8, !tbaa !44
  %135 = getelementptr inbounds [6 x ptr], ptr %18, i64 0, i64 2
  %136 = load ptr, ptr %135, align 16, !tbaa !44
  %137 = load i32, ptr %8, align 4, !tbaa !11
  call void %130(ptr noundef %132, ptr noundef %134, ptr noundef %136, i32 noundef %137)
  br label %138

138:                                              ; preds = %129, %124
  %139 = load i32, ptr %17, align 4, !tbaa !11
  %140 = sub nsw i32 %139, 1
  %141 = load i32, ptr %9, align 4, !tbaa !11
  %142 = icmp ult i32 %140, %141
  br i1 %142, label %143, label %153

143:                                              ; preds = %138
  %144 = load ptr, ptr %6, align 8, !tbaa !4
  %145 = getelementptr inbounds nuw %struct.DWTContext, ptr %144, i32 0, i32 13
  %146 = load ptr, ptr %145, align 8, !tbaa !33
  %147 = getelementptr inbounds [6 x ptr], ptr %18, i64 0, i64 0
  %148 = load ptr, ptr %147, align 16, !tbaa !44
  %149 = load ptr, ptr %6, align 8, !tbaa !4
  %150 = getelementptr inbounds nuw %struct.DWTContext, ptr %149, i32 0, i32 1
  %151 = load ptr, ptr %150, align 8, !tbaa !25
  %152 = load i32, ptr %8, align 4, !tbaa !11
  call void %146(ptr noundef %148, ptr noundef %151, i32 noundef %152)
  br label %153

153:                                              ; preds = %143, %138
  %154 = load i32, ptr %17, align 4, !tbaa !11
  %155 = add nsw i32 %154, 0
  %156 = load i32, ptr %9, align 4, !tbaa !11
  %157 = icmp ult i32 %155, %156
  br i1 %157, label %158, label %168

158:                                              ; preds = %153
  %159 = load ptr, ptr %6, align 8, !tbaa !4
  %160 = getelementptr inbounds nuw %struct.DWTContext, ptr %159, i32 0, i32 13
  %161 = load ptr, ptr %160, align 8, !tbaa !33
  %162 = getelementptr inbounds [6 x ptr], ptr %18, i64 0, i64 1
  %163 = load ptr, ptr %162, align 8, !tbaa !44
  %164 = load ptr, ptr %6, align 8, !tbaa !4
  %165 = getelementptr inbounds nuw %struct.DWTContext, ptr %164, i32 0, i32 1
  %166 = load ptr, ptr %165, align 8, !tbaa !25
  %167 = load i32, ptr %8, align 4, !tbaa !11
  call void %161(ptr noundef %163, ptr noundef %166, i32 noundef %167)
  br label %168

168:                                              ; preds = %158, %153
  store i32 0, ptr %16, align 4, !tbaa !11
  br label %169

169:                                              ; preds = %183, %168
  %170 = load i32, ptr %16, align 4, !tbaa !11
  %171 = icmp slt i32 %170, 4
  br i1 %171, label %172, label %186

172:                                              ; preds = %169
  %173 = load i32, ptr %16, align 4, !tbaa !11
  %174 = add nsw i32 %173, 2
  %175 = sext i32 %174 to i64
  %176 = getelementptr inbounds [6 x ptr], ptr %18, i64 0, i64 %175
  %177 = load ptr, ptr %176, align 8, !tbaa !44
  %178 = load ptr, ptr %15, align 8, !tbaa !42
  %179 = getelementptr inbounds nuw %struct.DWTCompose, ptr %178, i32 0, i32 0
  %180 = load i32, ptr %16, align 4, !tbaa !11
  %181 = sext i32 %180 to i64
  %182 = getelementptr inbounds [8 x ptr], ptr %179, i64 0, i64 %181
  store ptr %177, ptr %182, align 8, !tbaa !44
  br label %183

183:                                              ; preds = %172
  %184 = load i32, ptr %16, align 4, !tbaa !11
  %185 = add nsw i32 %184, 1
  store i32 %185, ptr %16, align 4, !tbaa !11
  br label %169, !llvm.loop !117

186:                                              ; preds = %169
  %187 = load ptr, ptr %15, align 8, !tbaa !42
  %188 = getelementptr inbounds nuw %struct.DWTCompose, ptr %187, i32 0, i32 1
  %189 = load i32, ptr %188, align 8, !tbaa !27
  %190 = add nsw i32 %189, 2
  store i32 %190, ptr %188, align 8, !tbaa !27
  call void @llvm.lifetime.end.p0(i64 48, ptr %18) #5
  call void @llvm.lifetime.end.p0(i64 4, ptr %17) #5
  call void @llvm.lifetime.end.p0(i64 4, ptr %16) #5
  call void @llvm.lifetime.end.p0(i64 8, ptr %15) #5
  call void @llvm.lifetime.end.p0(i64 8, ptr %14) #5
  call void @llvm.lifetime.end.p0(i64 8, ptr %13) #5
  call void @llvm.lifetime.end.p0(i64 8, ptr %12) #5
  call void @llvm.lifetime.end.p0(i64 8, ptr %11) #5
  ret void
}